---
triple:          'x86_64-apple-darwin'
binary-path:     '/Users/Lisa/Documents/Career/ProgrammingLanguages/C++/C++course/4-datatypeoverflow/Source Files/datatypeoverflow'
relocations:
  - { offsetInCU: 0x2F62, offset: 0x2F62, size: 0x8, addend: 0x0, symName: __ZNSt3__124__put_character_sequenceB8ue170006IcNS_11char_traitsIcEEEERNS_13basic_ostreamIT_T0_EES7_PKS4_m, symObjAddr: 0x2B0, symBinAddr: 0x100001260, symSize: 0x1F0 }
  - { offsetInCU: 0x48C8, offset: 0x48C8, size: 0x8, addend: 0x0, symName: __ZNSt3__1lsB8ue170006INS_11char_traitsIcEEEERNS_13basic_ostreamIcT_EES6_PKc, symObjAddr: 0xF0, symBinAddr: 0x1000010A0, symSize: 0x40 }
  - { offsetInCU: 0x490E, offset: 0x490E, size: 0x8, addend: 0x0, symName: __ZNSt3__1rsB8ue170006IcNS_11char_traitsIcEEEERNS_13basic_istreamIT_T0_EES7_RS4_, symObjAddr: 0x130, symBinAddr: 0x1000010E0, symSize: 0x180 }
  - { offsetInCU: 0x4990, offset: 0x4990, size: 0x8, addend: 0x0, symName: __ZNSt3__116__pad_and_outputB8ue170006IcNS_11char_traitsIcEEEENS_19ostreambuf_iteratorIT_T0_EES6_PKS4_S8_S8_RNS_8ios_baseES4_, symObjAddr: 0x4F0, symBinAddr: 0x1000014A0, symSize: 0x220 }
  - { offsetInCU: 0x4A60, offset: 0x4A60, size: 0x8, addend: 0x0, symName: __ZNSt3__112__to_addressB8ue170006IKcEEPT_S3_, symObjAddr: 0xA20, symBinAddr: 0x1000019D0, symSize: 0x10 }
  - { offsetInCU: 0x4AC8, offset: 0x4AC8, size: 0x8, addend: 0x0, symName: __ZNSt3__19use_facetB8ue170006INS_5ctypeIcEEEERKT_RKNS_6localeE, symObjAddr: 0xC80, symBinAddr: 0x100001C30, symSize: 0x30 }
  - { offsetInCU: 0x4F95, offset: 0x4F95, size: 0x8, addend: 0x0, symName: __ZNSt3__118__constexpr_strlenB8ue170006EPKc, symObjAddr: 0xD10, symBinAddr: 0x100001CC0, symSize: 0x20 }
  - { offsetInCU: 0x7BD5, offset: 0x7BD5, size: 0x8, addend: 0x0, symName: _main, symObjAddr: 0x0, symBinAddr: 0x100000FB0, symSize: 0xF0 }
  - { offsetInCU: 0x7C35, offset: 0x7C35, size: 0x8, addend: 0x0, symName: __ZNSt3__111char_traitsIcE6lengthB8ue170006EPKc, symObjAddr: 0x4A0, symBinAddr: 0x100001450, symSize: 0x30 }
  - { offsetInCU: 0x7C75, offset: 0x7C75, size: 0x8, addend: 0x0, symName: __ZNKSt3__113basic_ostreamIcNS_11char_traitsIcEEE6sentrycvbB8ue170006Ev, symObjAddr: 0x4D0, symBinAddr: 0x100001480, symSize: 0x20 }
  - { offsetInCU: 0x7C99, offset: 0x7C99, size: 0x8, addend: 0x0, symName: __ZNSt3__119ostreambuf_iteratorIcNS_11char_traitsIcEEEC1B8ue170006ERNS_13basic_ostreamIcS2_EE, symObjAddr: 0x710, symBinAddr: 0x1000016C0, symSize: 0x30 }
  - { offsetInCU: 0x7CCF, offset: 0x7CCF, size: 0x8, addend: 0x0, symName: __ZNKSt3__18ios_base5flagsB8ue170006Ev, symObjAddr: 0x740, symBinAddr: 0x1000016F0, symSize: 0x20 }
  - { offsetInCU: 0x7CF5, offset: 0x7CF5, size: 0x8, addend: 0x0, symName: __ZNKSt3__19basic_iosIcNS_11char_traitsIcEEE4fillB8ue170006Ev, symObjAddr: 0x760, symBinAddr: 0x100001710, symSize: 0x70 }
  - { offsetInCU: 0x7D1B, offset: 0x7D1B, size: 0x8, addend: 0x0, symName: __ZNKSt3__119ostreambuf_iteratorIcNS_11char_traitsIcEEE6failedB8ue170006Ev, symObjAddr: 0x7D0, symBinAddr: 0x100001780, symSize: 0x20 }
  - { offsetInCU: 0x7D3F, offset: 0x7D3F, size: 0x8, addend: 0x0, symName: __ZNSt3__19basic_iosIcNS_11char_traitsIcEEE8setstateB8ue170006Ej, symObjAddr: 0x7F0, symBinAddr: 0x1000017A0, symSize: 0x30 }
  - { offsetInCU: 0x7D72, offset: 0x7D72, size: 0x8, addend: 0x0, symName: __ZNKSt3__18ios_base5widthB8ue170006Ev, symObjAddr: 0x830, symBinAddr: 0x1000017E0, symSize: 0x20 }
  - { offsetInCU: 0x7D98, offset: 0x7D98, size: 0x8, addend: 0x0, symName: __ZNSt3__115basic_streambufIcNS_11char_traitsIcEEE5sputnB8ue170006EPKcl, symObjAddr: 0x850, symBinAddr: 0x100001800, symSize: 0x30 }
  - { offsetInCU: 0x7DD8, offset: 0x7DD8, size: 0x8, addend: 0x0, symName: __ZNSt3__112basic_stringIcNS_11char_traitsIcEENS_9allocatorIcEEEC1B8ue170006Emc, symObjAddr: 0x880, symBinAddr: 0x100001830, symSize: 0x30 }
  - { offsetInCU: 0x7E1E, offset: 0x7E1E, size: 0x8, addend: 0x0, symName: __ZNKSt3__112basic_stringIcNS_11char_traitsIcEENS_9allocatorIcEEE4dataB8ue170006Ev, symObjAddr: 0x8B0, symBinAddr: 0x100001860, symSize: 0x30 }
  - { offsetInCU: 0x7E42, offset: 0x7E42, size: 0x8, addend: 0x0, symName: __ZNSt3__18ios_base5widthB8ue170006El, symObjAddr: 0x8E0, symBinAddr: 0x100001890, symSize: 0x30 }
  - { offsetInCU: 0x7E86, offset: 0x7E86, size: 0x8, addend: 0x0, symName: __ZNSt3__112basic_stringIcNS_11char_traitsIcEENS_9allocatorIcEEEC2B8ue170006Emc, symObjAddr: 0x910, symBinAddr: 0x1000018C0, symSize: 0x50 }
  - { offsetInCU: 0x7ED1, offset: 0x7ED1, size: 0x8, addend: 0x0, symName: __ZNSt3__117__compressed_pairINS_12basic_stringIcNS_11char_traitsIcEENS_9allocatorIcEEE5__repES5_EC1B8ue170006INS_18__default_init_tagESA_EEOT_OT0_, symObjAddr: 0x960, symBinAddr: 0x100001910, symSize: 0x30 }
  - { offsetInCU: 0x7F27, offset: 0x7F27, size: 0x8, addend: 0x0, symName: __ZNSt3__117__compressed_pairINS_12basic_stringIcNS_11char_traitsIcEENS_9allocatorIcEEE5__repES5_EC2B8ue170006INS_18__default_init_tagESA_EEOT_OT0_, symObjAddr: 0x990, symBinAddr: 0x100001940, symSize: 0x30 }
  - { offsetInCU: 0x7F7D, offset: 0x7F7D, size: 0x8, addend: 0x0, symName: __ZNSt3__122__compressed_pair_elemINS_12basic_stringIcNS_11char_traitsIcEENS_9allocatorIcEEE5__repELi0ELb0EEC2B8ue170006ENS_18__default_init_tagE, symObjAddr: 0x9C0, symBinAddr: 0x100001970, symSize: 0x10 }
  - { offsetInCU: 0x7FAF, offset: 0x7FAF, size: 0x8, addend: 0x0, symName: __ZNSt3__122__compressed_pair_elemINS_9allocatorIcEELi1ELb1EEC2B8ue170006ENS_18__default_init_tagE, symObjAddr: 0x9D0, symBinAddr: 0x100001980, symSize: 0x20 }
  - { offsetInCU: 0x7FE1, offset: 0x7FE1, size: 0x8, addend: 0x0, symName: __ZNSt3__19allocatorIcEC2B8ue170006Ev, symObjAddr: 0x9F0, symBinAddr: 0x1000019A0, symSize: 0x20 }
  - { offsetInCU: 0x8009, offset: 0x8009, size: 0x8, addend: 0x0, symName: __ZNSt3__116__non_trivial_ifILb1ENS_9allocatorIcEEEC2B8ue170006Ev, symObjAddr: 0xA10, symBinAddr: 0x1000019C0, symSize: 0x10 }
  - { offsetInCU: 0x8031, offset: 0x8031, size: 0x8, addend: 0x0, symName: __ZNKSt3__112basic_stringIcNS_11char_traitsIcEENS_9allocatorIcEEE13__get_pointerB8ue170006Ev, symObjAddr: 0xA30, symBinAddr: 0x1000019E0, symSize: 0x50 }
  - { offsetInCU: 0x8055, offset: 0x8055, size: 0x8, addend: 0x0, symName: __ZNKSt3__112basic_stringIcNS_11char_traitsIcEENS_9allocatorIcEEE9__is_longB8ue170006Ev, symObjAddr: 0xA80, symBinAddr: 0x100001A30, symSize: 0x30 }
  - { offsetInCU: 0x8079, offset: 0x8079, size: 0x8, addend: 0x0, symName: __ZNKSt3__112basic_stringIcNS_11char_traitsIcEENS_9allocatorIcEEE18__get_long_pointerB8ue170006Ev, symObjAddr: 0xAB0, symBinAddr: 0x100001A60, symSize: 0x20 }
  - { offsetInCU: 0x809D, offset: 0x809D, size: 0x8, addend: 0x0, symName: __ZNKSt3__112basic_stringIcNS_11char_traitsIcEENS_9allocatorIcEEE19__get_short_pointerB8ue170006Ev, symObjAddr: 0xAD0, symBinAddr: 0x100001A80, symSize: 0x30 }
  - { offsetInCU: 0x80C1, offset: 0x80C1, size: 0x8, addend: 0x0, symName: __ZNKSt3__117__compressed_pairINS_12basic_stringIcNS_11char_traitsIcEENS_9allocatorIcEEE5__repES5_E5firstB8ue170006Ev, symObjAddr: 0xB00, symBinAddr: 0x100001AB0, symSize: 0x20 }
  - { offsetInCU: 0x80E5, offset: 0x80E5, size: 0x8, addend: 0x0, symName: __ZNKSt3__122__compressed_pair_elemINS_12basic_stringIcNS_11char_traitsIcEENS_9allocatorIcEEE5__repELi0ELb0EE5__getB8ue170006Ev, symObjAddr: 0xB20, symBinAddr: 0x100001AD0, symSize: 0x10 }
  - { offsetInCU: 0x8109, offset: 0x8109, size: 0x8, addend: 0x0, symName: __ZNSt3__114pointer_traitsIPKcE10pointer_toB8ue170006ERS1_, symObjAddr: 0xB30, symBinAddr: 0x100001AE0, symSize: 0x10 }
  - { offsetInCU: 0x812B, offset: 0x812B, size: 0x8, addend: 0x0, symName: __ZNSt3__119ostreambuf_iteratorIcNS_11char_traitsIcEEEC2B8ue170006ERNS_13basic_ostreamIcS2_EE, symObjAddr: 0xB40, symBinAddr: 0x100001AF0, symSize: 0x50 }
  - { offsetInCU: 0x8161, offset: 0x8161, size: 0x8, addend: 0x0, symName: __ZNKSt3__19basic_iosIcNS_11char_traitsIcEEE5rdbufB8ue170006Ev, symObjAddr: 0xB90, symBinAddr: 0x100001B40, symSize: 0x20 }
  - { offsetInCU: 0x8187, offset: 0x8187, size: 0x8, addend: 0x0, symName: __ZNKSt3__18ios_base5rdbufB8ue170006Ev, symObjAddr: 0xBB0, symBinAddr: 0x100001B60, symSize: 0x20 }
  - { offsetInCU: 0x81AB, offset: 0x81AB, size: 0x8, addend: 0x0, symName: __ZNSt3__111char_traitsIcE11eq_int_typeB8ue170006Eii, symObjAddr: 0xBD0, symBinAddr: 0x100001B80, symSize: 0x20 }
  - { offsetInCU: 0x81DD, offset: 0x81DD, size: 0x8, addend: 0x0, symName: __ZNSt3__111char_traitsIcE3eofB8ue170006Ev, symObjAddr: 0xBF0, symBinAddr: 0x100001BA0, symSize: 0x10 }
  - { offsetInCU: 0x81F0, offset: 0x81F0, size: 0x8, addend: 0x0, symName: __ZNKSt3__19basic_iosIcNS_11char_traitsIcEEE5widenB8ue170006Ec, symObjAddr: 0xC00, symBinAddr: 0x100001BB0, symSize: 0x80 }
  - { offsetInCU: 0x825C, offset: 0x825C, size: 0x8, addend: 0x0, symName: __ZNKSt3__15ctypeIcE5widenB8ue170006Ec, symObjAddr: 0xCB0, symBinAddr: 0x100001C60, symSize: 0x30 }
  - { offsetInCU: 0x828F, offset: 0x828F, size: 0x8, addend: 0x0, symName: __ZNSt3__18ios_base8setstateB8ue170006Ej, symObjAddr: 0xCE0, symBinAddr: 0x100001C90, symSize: 0x30 }
  - { offsetInCU: 0x8356, offset: 0x8356, size: 0x8, addend: 0x0, symName: __ZNKSt3__113basic_istreamIcNS_11char_traitsIcEEE6sentrycvbB8ue170006Ev, symObjAddr: 0xD30, symBinAddr: 0x100001CE0, symSize: 0x20 }
  - { offsetInCU: 0x837A, offset: 0x837A, size: 0x8, addend: 0x0, symName: __ZNSt3__115basic_streambufIcNS_11char_traitsIcEEE6sbumpcB8ue170006Ev, symObjAddr: 0xD50, symBinAddr: 0x100001D00, symSize: 0x60 }
  - { offsetInCU: 0x839E, offset: 0x839E, size: 0x8, addend: 0x0, symName: __ZNSt3__111char_traitsIcE12to_char_typeB8ue170006Ei, symObjAddr: 0xDB0, symBinAddr: 0x100001D60, symSize: 0x10 }
  - { offsetInCU: 0x83C0, offset: 0x83C0, size: 0x8, addend: 0x0, symName: __ZNSt3__18ios_base18__setstate_nothrowB8ue170006Ej, symObjAddr: 0xDC0, symBinAddr: 0x100001D70, symSize: 0x50 }
  - { offsetInCU: 0x83F3, offset: 0x83F3, size: 0x8, addend: 0x0, symName: __ZNKSt3__19basic_iosIcNS_11char_traitsIcEEE10exceptionsB8ue170006Ev, symObjAddr: 0xE10, symBinAddr: 0x100001DC0, symSize: 0x20 }
  - { offsetInCU: 0x8417, offset: 0x8417, size: 0x8, addend: 0x0, symName: __ZNSt3__111char_traitsIcE11to_int_typeB8ue170006Ec, symObjAddr: 0xE30, symBinAddr: 0x100001DE0, symSize: 0x10 }
  - { offsetInCU: 0x843A, offset: 0x843A, size: 0x8, addend: 0x0, symName: __ZNKSt3__18ios_base10exceptionsB8ue170006Ev, symObjAddr: 0xE40, symBinAddr: 0x100001DF0, symSize: 0x11 }
...
